; Function Attrs: nounwind uwtable
define dso_local void @brinGetStats(ptr noundef %0, ptr noundef writeonly captures(none) initializes((0, 8)) %1) local_unnamed_addr #0 {
  %3 = tail call i32 @ReadBuffer(ptr noundef %0, i32 noundef 0) #10
  tail call void @LockBuffer(i32 noundef %3, i32 noundef 1) #10
  %4 = icmp slt i32 %3, 0
  br i1 %4, label %5, label %11

5:                                                ; preds = %2
  %6 = load ptr, ptr @LocalBufferBlockPointers, align 8
  %7 = xor i32 %3, -1
  %8 = zext nneg i32 %7 to i64
  %9 = getelementptr inbounds nuw ptr, ptr %6, i64 %8
  %10 = load ptr, ptr %9, align 8
  br label %BufferGetPage.exit

11:                                               ; preds = %2
  %12 = load ptr, ptr @BufferBlocks, align 8
  %13 = add nsw i32 %3, -1
  %14 = sext i32 %13 to i64
  %15 = shl nsw i64 %14, 13
  %16 = getelementptr inbounds nuw i8, ptr %12, i64 %15
  br label %BufferGetPage.exit

BufferGetPage.exit:                               ; preds = %5, %11
  %.0.i.i = phi ptr [ %10, %5 ], [ %16, %11 ]
  %17 = getelementptr inbounds nuw i8, ptr %.0.i.i, i64 32
  %18 = load i32, ptr %17, align 4
  store i32 %18, ptr %1, align 4
  %19 = getelementptr inbounds nuw i8, ptr %.0.i.i, i64 36
  %20 = load i32, ptr %19, align 4
  %21 = add i32 %20, -1
  %22 = getelementptr inbounds nuw i8, ptr %1, i64 4
  store i32 %21, ptr %22, align 4
  tail call void @UnlockReleaseBuffer(i32 noundef %3) #10
  ret void
}